; ModuleID = '62/3038.c'
source_filename = "62/3038.c"
target datalayout = "e-m:e-p270:32:32-p271:32:32-p272:64:64-i64:64-f80:128-n8:16:32:64-S128"
target triple = "x86_64-pc-linux-gnu"

@.str = private unnamed_addr constant [3 x i8] c"%s\00", align 1

; Function Attrs: noinline nounwind uwtable
define dso_local i32 @main() #0 {
  %1 = alloca i32, align 4
  %2 = alloca i32, align 4
  %3 = alloca i32, align 4
  %4 = alloca i32, align 4
  %5 = alloca i32, align 4
  %6 = alloca [1000 x i8], align 16
  store i32 0, i32* %1, align 4
  store i32 0, i32* %5, align 4
  %7 = getelementptr inbounds [1000 x i8], [1000 x i8]* %6, i64 0, i64 0
  %8 = call i32 (i8*, ...) bitcast (i32 (...)* @gets to i32 (i8*, ...)*)(i8* %7)
  %9 = getelementptr inbounds [1000 x i8], [1000 x i8]* %6, i64 0, i64 0
  %10 = call i64 @strlen(i8* %9) #3
  %11 = trunc i64 %10 to i32
  store i32 %11, i32* %3, align 4
  store i32 0, i32* %2, align 4
  br label %12

12:                                               ; preds = %58, %0
  %13 = load i32, i32* %2, align 4
  %14 = load i32, i32* %3, align 4
  %15 = sub nsw i32 %14, 1
  %16 = icmp slt i32 %13, %15
  br i1 %16, label %17, label %61

17:                                               ; preds = %12
  %18 = load i32, i32* %2, align 4
  %19 = sext i32 %18 to i64
  %20 = getelementptr inbounds [1000 x i8], [1000 x i8]* %6, i64 0, i64 %19
  %21 = load i8, i8* %20, align 1
  %22 = sext i8 %21 to i32
  %23 = icmp eq i32 %22, 32
  br i1 %23, label %24, label %57

24:                                               ; preds = %17
  %25 = load i32, i32* %2, align 4
  %26 = add nsw i32 %25, 1
  %27 = sext i32 %26 to i64
  %28 = getelementptr inbounds [1000 x i8], [1000 x i8]* %6, i64 0, i64 %27
  %29 = load i8, i8* %28, align 1
  %30 = sext i8 %29 to i32
  %31 = icmp eq i32 %30, 32
  br i1 %31, label %32, label %57

32:                                               ; preds = %24
  %33 = load i32, i32* %2, align 4
  %34 = add nsw i32 %33, 1
  store i32 %34, i32* %4, align 4
  br label %35

35:                                               ; preds = %49, %32
  %36 = load i32, i32* %4, align 4
  %37 = load i32, i32* %3, align 4
  %38 = sub nsw i32 %37, 1
  %39 = icmp slt i32 %36, %38
  br i1 %39, label %40, label %52

40:                                               ; preds = %35
  %41 = load i32, i32* %4, align 4
  %42 = add nsw i32 %41, 1
  %43 = sext i32 %42 to i64
  %44 = getelementptr inbounds [1000 x i8], [1000 x i8]* %6, i64 0, i64 %43
  %45 = load i8, i8* %44, align 1
  %46 = load i32, i32* %4, align 4
  %47 = sext i32 %46 to i64
  %48 = getelementptr inbounds [1000 x i8], [1000 x i8]* %6, i64 0, i64 %47
  store i8 %45, i8* %48, align 1
  br label %49

49:                                               ; preds = %40
  %50 = load i32, i32* %4, align 4
  %51 = add nsw i32 %50, 1
  store i32 %51, i32* %4, align 4
  br label %35

52:                                               ; preds = %35
  %53 = load i32, i32* %2, align 4
  %54 = add nsw i32 %53, -1
  store i32 %54, i32* %2, align 4
  %55 = load i32, i32* %5, align 4
  %56 = add nsw i32 %55, 1
  store i32 %56, i32* %5, align 4
  br label %57

57:                                               ; preds = %52, %24, %17
  br label %58

58:                                               ; preds = %57
  %59 = load i32, i32* %2, align 4
  %60 = add nsw i32 %59, 1
  store i32 %60, i32* %2, align 4
  br label %12

61:                                               ; preds = %12
  %62 = load i32, i32* %5, align 4
  %63 = icmp ne i32 %62, 0
  br i1 %63, label %64, label %70

64:                                               ; preds = %61
  %65 = load i32, i32* %3, align 4
  %66 = load i32, i32* %5, align 4
  %67 = sub nsw i32 %65, %66
  %68 = sext i32 %67 to i64
  %69 = getelementptr inbounds [1000 x i8], [1000 x i8]* %6, i64 0, i64 %68
  store i8 0, i8* %69, align 1
  br label %70

70:                                               ; preds = %64, %61
  %71 = getelementptr inbounds [1000 x i8], [1000 x i8]* %6, i64 0, i64 0
  %72 = call i32 (i8*, ...) @printf(i8* getelementptr inbounds ([3 x i8], [3 x i8]* @.str, i64 0, i64 0), i8* %71)
  ret i32 0
}

declare dso_local i32 @gets(...) #1

; Function Attrs: nounwind readonly
declare dso_local i64 @strlen(i8*) #2

declare dso_local i32 @printf(i8*, ...) #1


!llvm.module.flags = !{!0}
!llvm.ident = !{!1}

!0 = !{i32 1, !"wchar_size", i32 4}
!1 = !{!"clang version 10.0.0-4ubuntu1 "}
