; ModuleID = 'source-C-CXX/61/3038.c'
source_filename = "source-C-CXX/61/3038.c"
target datalayout = "e-m:e-p270:32:32-p271:32:32-p272:64:64-i64:64-f80:128-n8:16:32:64-S128"
target triple = "x86_64-pc-linux-gnu"

@.str = private unnamed_addr constant [3 x i8] c"%s\00", align 1

; Function Attrs: nounwind sspstrong uwtable
define dso_local i32 @main() local_unnamed_addr #0 {
  %1 = alloca [1000 x i8], align 16
  %2 = getelementptr inbounds [1000 x i8], [1000 x i8]* %1, i64 0, i64 0
  call void @llvm.lifetime.start.p0i8(i64 1000, i8* nonnull %2) #5
  %3 = call i32 (i8*, ...) bitcast (i32 (...)* @gets to i32 (i8*, ...)*)(i8* nonnull %2) #5
  %4 = call i64 @strlen(i8* noundef nonnull %2) #6
  %5 = trunc i64 %4 to i32
  %6 = add i32 %5, -1
  %7 = icmp sgt i32 %5, 1
  br i1 %7, label %8, label %139

8:                                                ; preds = %0
  %9 = add i32 %5, -3
  %10 = add i32 %5, -3
  br label %11

11:                                               ; preds = %8, %128
  %12 = phi i32 [ %130, %128 ], [ 0, %8 ]
  %13 = phi i32 [ %131, %128 ], [ 0, %8 ]
  %14 = sext i32 %13 to i64
  %15 = getelementptr inbounds [1000 x i8], [1000 x i8]* %1, i64 0, i64 %14
  %16 = load i8, i8* %15, align 1, !tbaa !5
  %17 = icmp eq i8 %16, 32
  br i1 %17, label %18, label %128

18:                                               ; preds = %11
  %19 = add nsw i32 %13, 1
  %20 = sext i32 %19 to i64
  %21 = getelementptr inbounds [1000 x i8], [1000 x i8]* %1, i64 0, i64 %20
  %22 = load i8, i8* %21, align 1, !tbaa !5
  %23 = icmp eq i8 %22, 32
  br i1 %23, label %24, label %128

24:                                               ; preds = %18
  %25 = icmp slt i32 %19, %6
  br i1 %25, label %26, label %125

26:                                               ; preds = %24
  %27 = sub i32 %9, %13
  %28 = zext i32 %27 to i64
  %29 = add nuw nsw i64 %28, 1
  %30 = icmp ult i32 %27, 7
  br i1 %30, label %115, label %31

31:                                               ; preds = %26
  %32 = icmp ult i32 %27, 31
  br i1 %32, label %95, label %33

33:                                               ; preds = %31
  %34 = and i64 %29, 8589934560
  %35 = add nsw i64 %34, -32
  %36 = lshr exact i64 %35, 5
  %37 = add nuw nsw i64 %36, 1
  %38 = and i64 %37, 1
  %39 = icmp eq i64 %35, 0
  br i1 %39, label %73, label %40

40:                                               ; preds = %33
  %41 = and i64 %37, 1152921504606846974
  br label %42

42:                                               ; preds = %42, %40
  %43 = phi i64 [ 0, %40 ], [ %70, %42 ]
  %44 = phi i64 [ %41, %40 ], [ %71, %42 ]
  %45 = add i64 %43, %20
  %46 = add nsw i64 %45, 1
  %47 = getelementptr inbounds [1000 x i8], [1000 x i8]* %1, i64 0, i64 %46
  %48 = bitcast i8* %47 to <16 x i8>*
  %49 = load <16 x i8>, <16 x i8>* %48, align 1, !tbaa !5
  %50 = getelementptr inbounds i8, i8* %47, i64 16
  %51 = bitcast i8* %50 to <16 x i8>*
  %52 = load <16 x i8>, <16 x i8>* %51, align 1, !tbaa !5
  %53 = getelementptr inbounds [1000 x i8], [1000 x i8]* %1, i64 0, i64 %45
  %54 = bitcast i8* %53 to <16 x i8>*
  store <16 x i8> %49, <16 x i8>* %54, align 1, !tbaa !5
  %55 = getelementptr inbounds i8, i8* %53, i64 16
  %56 = bitcast i8* %55 to <16 x i8>*
  store <16 x i8> %52, <16 x i8>* %56, align 1, !tbaa !5
  %57 = or i64 %43, 32
  %58 = add i64 %57, %20
  %59 = add nsw i64 %58, 1
  %60 = getelementptr inbounds [1000 x i8], [1000 x i8]* %1, i64 0, i64 %59
  %61 = bitcast i8* %60 to <16 x i8>*
  %62 = load <16 x i8>, <16 x i8>* %61, align 1, !tbaa !5
  %63 = getelementptr inbounds i8, i8* %60, i64 16
  %64 = bitcast i8* %63 to <16 x i8>*
  %65 = load <16 x i8>, <16 x i8>* %64, align 1, !tbaa !5
  %66 = getelementptr inbounds [1000 x i8], [1000 x i8]* %1, i64 0, i64 %58
  %67 = bitcast i8* %66 to <16 x i8>*
  store <16 x i8> %62, <16 x i8>* %67, align 1, !tbaa !5
  %68 = getelementptr inbounds i8, i8* %66, i64 16
  %69 = bitcast i8* %68 to <16 x i8>*
  store <16 x i8> %65, <16 x i8>* %69, align 1, !tbaa !5
  %70 = add nuw i64 %43, 64
  %71 = add i64 %44, -2
  %72 = icmp eq i64 %71, 0
  br i1 %72, label %73, label %42, !llvm.loop !8

73:                                               ; preds = %42, %33
  %74 = phi i64 [ 0, %33 ], [ %70, %42 ]
  %75 = icmp eq i64 %38, 0
  br i1 %75, label %89, label %76

76:                                               ; preds = %73
  %77 = add i64 %74, %20
  %78 = add nsw i64 %77, 1
  %79 = getelementptr inbounds [1000 x i8], [1000 x i8]* %1, i64 0, i64 %78
  %80 = bitcast i8* %79 to <16 x i8>*
  %81 = load <16 x i8>, <16 x i8>* %80, align 1, !tbaa !5
  %82 = getelementptr inbounds i8, i8* %79, i64 16
  %83 = bitcast i8* %82 to <16 x i8>*
  %84 = load <16 x i8>, <16 x i8>* %83, align 1, !tbaa !5
  %85 = getelementptr inbounds [1000 x i8], [1000 x i8]* %1, i64 0, i64 %77
  %86 = bitcast i8* %85 to <16 x i8>*
  store <16 x i8> %81, <16 x i8>* %86, align 1, !tbaa !5
  %87 = getelementptr inbounds i8, i8* %85, i64 16
  %88 = bitcast i8* %87 to <16 x i8>*
  store <16 x i8> %84, <16 x i8>* %88, align 1, !tbaa !5
  br label %89

89:                                               ; preds = %73, %76
  %90 = icmp eq i64 %29, %34
  br i1 %90, label %125, label %91

91:                                               ; preds = %89
  %92 = add nsw i64 %34, %20
  %93 = and i64 %29, 24
  %94 = icmp eq i64 %93, 0
  br i1 %94, label %115, label %95

95:                                               ; preds = %31, %91
  %96 = phi i64 [ %34, %91 ], [ 0, %31 ]
  %97 = sub i32 %10, %13
  %98 = zext i32 %97 to i64
  %99 = add nuw nsw i64 %98, 1
  %100 = and i64 %99, 8589934584
  %101 = add nsw i64 %100, %20
  br label %102

102:                                              ; preds = %102, %95
  %103 = phi i64 [ %96, %95 ], [ %111, %102 ]
  %104 = add i64 %103, %20
  %105 = add nsw i64 %104, 1
  %106 = getelementptr inbounds [1000 x i8], [1000 x i8]* %1, i64 0, i64 %105
  %107 = bitcast i8* %106 to <8 x i8>*
  %108 = load <8 x i8>, <8 x i8>* %107, align 1, !tbaa !5
  %109 = getelementptr inbounds [1000 x i8], [1000 x i8]* %1, i64 0, i64 %104
  %110 = bitcast i8* %109 to <8 x i8>*
  store <8 x i8> %108, <8 x i8>* %110, align 1, !tbaa !5
  %111 = add nuw i64 %103, 8
  %112 = icmp eq i64 %111, %100
  br i1 %112, label %113, label %102, !llvm.loop !11

113:                                              ; preds = %102
  %114 = icmp eq i64 %99, %100
  br i1 %114, label %125, label %115

115:                                              ; preds = %26, %91, %113
  %116 = phi i64 [ %20, %26 ], [ %92, %91 ], [ %101, %113 ]
  br label %117

117:                                              ; preds = %115, %117
  %118 = phi i64 [ %119, %117 ], [ %116, %115 ]
  %119 = add nsw i64 %118, 1
  %120 = getelementptr inbounds [1000 x i8], [1000 x i8]* %1, i64 0, i64 %119
  %121 = load i8, i8* %120, align 1, !tbaa !5
  %122 = getelementptr inbounds [1000 x i8], [1000 x i8]* %1, i64 0, i64 %118
  store i8 %121, i8* %122, align 1, !tbaa !5
  %123 = trunc i64 %119 to i32
  %124 = icmp eq i32 %6, %123
  br i1 %124, label %125, label %117, !llvm.loop !12

125:                                              ; preds = %117, %89, %113, %24
  %126 = add nsw i32 %13, -1
  %127 = add nsw i32 %12, 1
  br label %128

128:                                              ; preds = %11, %18, %125
  %129 = phi i32 [ %126, %125 ], [ %13, %18 ], [ %13, %11 ]
  %130 = phi i32 [ %127, %125 ], [ %12, %18 ], [ %12, %11 ]
  %131 = add nsw i32 %129, 1
  %132 = icmp slt i32 %131, %6
  br i1 %132, label %11, label %133, !llvm.loop !14

133:                                              ; preds = %128
  %134 = icmp eq i32 %130, 0
  br i1 %134, label %139, label %135

135:                                              ; preds = %133
  %136 = sub nsw i32 %5, %130
  %137 = sext i32 %136 to i64
  %138 = getelementptr inbounds [1000 x i8], [1000 x i8]* %1, i64 0, i64 %137
  store i8 0, i8* %138, align 1, !tbaa !5
  br label %139

139:                                              ; preds = %0, %135, %133
  %140 = call i32 (i8*, ...) @printf(i8* nonnull dereferenceable(1) getelementptr inbounds ([3 x i8], [3 x i8]* @.str, i64 0, i64 0), i8* nonnull %2)
  call void @llvm.lifetime.end.p0i8(i64 1000, i8* nonnull %2) #5
  ret i32 0
}

; Function Attrs: argmemonly mustprogress nofree nosync nounwind willreturn
declare void @llvm.lifetime.start.p0i8(i64 immarg, i8* nocapture) #1

declare i32 @gets(...) local_unnamed_addr #2

; Function Attrs: argmemonly mustprogress nofree nounwind readonly willreturn
declare i64 @strlen(i8* nocapture) local_unnamed_addr #3

; Function Attrs: nofree nounwind
declare noundef i32 @printf(i8* nocapture noundef readonly, ...) local_unnamed_addr #4

; Function Attrs: argmemonly mustprogress nofree nosync nounwind willreturn
declare void @llvm.lifetime.end.p0i8(i64 immarg, i8* nocapture) #1


!llvm.module.flags = !{!0, !1, !2, !3}
!llvm.ident = !{!4}

!0 = !{i32 1, !"wchar_size", i32 4}
!1 = !{i32 7, !"PIC Level", i32 2}
!2 = !{i32 7, !"PIE Level", i32 2}
!3 = !{i32 7, !"uwtable", i32 1}
!4 = !{!"clang version 13.0.0"}
!5 = !{!6, !6, i64 0}
!6 = !{!"omnipotent char", !7, i64 0}
!7 = !{!"Simple C/C++ TBAA"}
!8 = distinct !{!8, !9, !10}
!9 = !{!"llvm.loop.mustprogress"}
!10 = !{!"llvm.loop.isvectorized", i32 1}
!11 = distinct !{!11, !9, !10}
!12 = distinct !{!12, !9, !13, !10}
!13 = !{!"llvm.loop.unroll.runtime.disable"}
!14 = distinct !{!14, !9}
